target datalayout = "e-m:e-p270:32:32-p271:32:32-p272:64:64-i64:64-i128:128-f80:128-n8:16:32:64-S128"
target triple = "x86_64-unknown-linux-gnu"

%"class.llvh::cl::OptionCategory" = type { %"class.llvh::StringRef", %"class.llvh::StringRef" }
%"class.llvh::StringRef" = type { ptr, i64 }
%"class.llvh::SmallPtrSet" = type { %"class.llvh::SmallPtrSetImpl.base", [4 x ptr] }
%"class.llvh::SmallPtrSetImpl.base" = type { %"class.llvh::SmallPtrSetImplBase.base" }
%"class.llvh::SmallPtrSetImplBase.base" = type <{ ptr, ptr, i32, i32, i32 }>
%"class.llvh::cl::Option" = type <{ ptr, i32, i16, [2 x i8], i32, i32, %"class.llvh::StringRef", %"class.llvh::StringRef", %"class.llvh::StringRef", ptr, %"class.llvh::SmallPtrSet", i8, [7 x i8] }>
%"class.llvh::StringMapIterator" = type { %"class.llvh::StringMapIterBase" }
%"class.llvh::StringMapIterBase" = type { ptr }
%"class.llvh::cl::SubCommand" = type { %"class.llvh::StringRef", %"class.llvh::StringRef", %"class.llvh::SmallVector", %"class.llvh::SmallVector", %"class.llvh::StringMap", ptr }
%"class.llvh::SmallVector" = type { %"class.llvh::SmallVectorImpl.49", %"struct.llvh::SmallVectorStorage" }
%"class.llvh::SmallVectorImpl.49" = type { %"class.llvh::SmallVectorTemplateBase.50" }
%"class.llvh::SmallVectorTemplateBase.50" = type { %"class.llvh::SmallVectorTemplateCommon.51" }
%"class.llvh::SmallVectorTemplateCommon.51" = type { %"class.llvh::SmallVectorBase" }
%"class.llvh::SmallVectorBase" = type { ptr, i32, i32 }
%"struct.llvh::SmallVectorStorage" = type { [4 x %"struct.llvh::AlignedCharArrayUnion"] }
%"struct.llvh::AlignedCharArrayUnion" = type { %"struct.llvh::AlignedCharArray" }
%"struct.llvh::AlignedCharArray" = type { [8 x i8] }
%"class.llvh::StringMap" = type <{ %"class.llvh::StringMapImpl", %"class.llvh::MallocAllocator", [7 x i8] }>
%"class.llvh::StringMapImpl" = type { ptr, i32, i32, i32, i32 }
%"class.llvh::MallocAllocator" = type { i8 }
%"class.llvh::StringMapEntry" = type { %"class.llvh::StringMapEntryBase", ptr }
%"class.llvh::StringMapEntryBase" = type { i64 }

@_ZL15GenericCategory = internal global %"class.llvh::cl::OptionCategory" zeroinitializer, align 8

; Function Attrs: mustprogress nounwind uwtable
define linkonce_odr hidden noundef ptr @_ZN4llvh13StringMapImpl15getTombstoneValEv() #0 comdat align 2 {
entry:
  %Val = alloca i64, align 8
  store i64 -1, ptr %Val, align 8
  %0 = load i64, ptr %Val, align 8
  %shl = shl i64 %0, 3
  store i64 %shl, ptr %Val, align 8
  %1 = load i64, ptr %Val, align 8
  %2 = inttoptr i64 %1 to ptr
  ret ptr %2
}

; Function Attrs: mustprogress nounwind uwtable
define linkonce_odr hidden void @_ZN4llvh17StringMapIterBaseINS_17StringMapIteratorIPNS_2cl6OptionEEENS_14StringMapEntryIS4_EEEC2EPPNS_18StringMapEntryBaseEb(ptr noundef nonnull align 8 dereferenceable(8) %this, ptr noundef %Bucket, i1 noundef zeroext %NoAdvance) unnamed_addr #0 comdat align 2 {
entry:
  %this.addr = alloca ptr, align 8
  %Bucket.addr = alloca ptr, align 8
  %NoAdvance.addr = alloca i8, align 1
  store ptr %this, ptr %this.addr, align 8
  store ptr %Bucket, ptr %Bucket.addr, align 8
  %frombool = zext i1 %NoAdvance to i8
  store i8 %frombool, ptr %NoAdvance.addr, align 1
  %this1 = load ptr, ptr %this.addr, align 8
  %Ptr = getelementptr inbounds %"class.llvh::StringMapIterBase", ptr %this1, i32 0, i32 0
  %0 = load ptr, ptr %Bucket.addr, align 8
  store ptr %0, ptr %Ptr, align 8
  %1 = load i8, ptr %NoAdvance.addr, align 1
  %tobool = trunc i8 %1 to i1
  br i1 %tobool, label %if.end, label %if.then

if.then:                                          ; preds = %entry
  call void @_ZN4llvh17StringMapIterBaseINS_17StringMapIteratorIPNS_2cl6OptionEEENS_14StringMapEntryIS4_EEE23AdvancePastEmptyBucketsEv(ptr noundef nonnull align 8 dereferenceable(8) %this1)
  br label %if.end

if.end:                                           ; preds = %if.then, %entry
  ret void
}

; Function Attrs: mustprogress nounwind uwtable
define linkonce_odr hidden void @_ZN4llvh17StringMapIterBaseINS_17StringMapIteratorIPNS_2cl6OptionEEENS_14StringMapEntryIS4_EEE23AdvancePastEmptyBucketsEv(ptr noundef nonnull align 8 dereferenceable(8) %this) #0 comdat align 2 {
entry:
  %this.addr = alloca ptr, align 8
  store ptr %this, ptr %this.addr, align 8
  %this1 = load ptr, ptr %this.addr, align 8
  br label %while.cond

while.cond:                                       ; preds = %while.body, %entry
  %Ptr = getelementptr inbounds %"class.llvh::StringMapIterBase", ptr %this1, i32 0, i32 0
  %0 = load ptr, ptr %Ptr, align 8
  %1 = load ptr, ptr %0, align 8
  %cmp = icmp eq ptr %1, null
  br i1 %cmp, label %lor.end, label %lor.rhs

lor.rhs:                                          ; preds = %while.cond
  %Ptr2 = getelementptr inbounds %"class.llvh::StringMapIterBase", ptr %this1, i32 0, i32 0
  %2 = load ptr, ptr %Ptr2, align 8
  %3 = load ptr, ptr %2, align 8
  %call = call noundef ptr @_ZN4llvh13StringMapImpl15getTombstoneValEv()
  %cmp3 = icmp eq ptr %3, %call
  br label %lor.end

lor.end:                                          ; preds = %lor.rhs, %while.cond
  %4 = phi i1 [ true, %while.cond ], [ %cmp3, %lor.rhs ]
  br i1 %4, label %while.body, label %while.end

while.body:                                       ; preds = %lor.end
  %Ptr4 = getelementptr inbounds %"class.llvh::StringMapIterBase", ptr %this1, i32 0, i32 0
  %5 = load ptr, ptr %Ptr4, align 8
  %incdec.ptr = getelementptr inbounds ptr, ptr %5, i32 1
  store ptr %incdec.ptr, ptr %Ptr4, align 8
  br label %while.cond, !llvm.loop !40

while.end:                                        ; preds = %lor.end
  ret void
}

; Function Attrs: mustprogress nounwind uwtable
define linkonce_odr hidden noundef zeroext i1 @_ZNK4llvh17StringMapIterBaseINS_17StringMapIteratorIPNS_2cl6OptionEEENS_14StringMapEntryIS4_EEEeqERKS5_(ptr noundef nonnull align 8 dereferenceable(8) %this, ptr noundef nonnull align 8 dereferenceable(8) %RHS) #0 comdat align 2 {
entry:
  %this.addr = alloca ptr, align 8
  %RHS.addr = alloca ptr, align 8
  store ptr %this, ptr %this.addr, align 8
  store ptr %RHS, ptr %RHS.addr, align 8
  %this1 = load ptr, ptr %this.addr, align 8
  %Ptr = getelementptr inbounds %"class.llvh::StringMapIterBase", ptr %this1, i32 0, i32 0
  %0 = load ptr, ptr %Ptr, align 8
  %1 = load ptr, ptr %RHS.addr, align 8
  %Ptr2 = getelementptr inbounds %"class.llvh::StringMapIterBase", ptr %1, i32 0, i32 0
  %2 = load ptr, ptr %Ptr2, align 8
  %cmp = icmp eq ptr %0, %2
  ret i1 %cmp
}

; Function Attrs: mustprogress nounwind uwtable
define linkonce_odr hidden void @_ZN4llvh17StringMapIteratorIPNS_2cl6OptionEEC2EPPNS_18StringMapEntryBaseEb(ptr noundef nonnull align 8 dereferenceable(8) %this, ptr noundef %Bucket, i1 noundef zeroext %NoAdvance) unnamed_addr #0 comdat align 2 {
entry:
  %this.addr = alloca ptr, align 8
  %Bucket.addr = alloca ptr, align 8
  %NoAdvance.addr = alloca i8, align 1
  store ptr %this, ptr %this.addr, align 8
  store ptr %Bucket, ptr %Bucket.addr, align 8
  %frombool = zext i1 %NoAdvance to i8
  store i8 %frombool, ptr %NoAdvance.addr, align 1
  %this1 = load ptr, ptr %this.addr, align 8
  %0 = load ptr, ptr %Bucket.addr, align 8
  %1 = load i8, ptr %NoAdvance.addr, align 1
  %tobool = trunc i8 %1 to i1
  call void @_ZN4llvh17StringMapIterBaseINS_17StringMapIteratorIPNS_2cl6OptionEEENS_14StringMapEntryIS4_EEEC2EPPNS_18StringMapEntryBaseEb(ptr noundef nonnull align 8 dereferenceable(8) %this1, ptr noundef %0, i1 noundef zeroext %tobool)
  ret void
}

; Function Attrs: mustprogress nounwind uwtable
define linkonce_odr hidden noundef nonnull align 8 dereferenceable(8) ptr @_ZN4llvh17StringMapIterBaseINS_17StringMapIteratorIPNS_2cl6OptionEEENS_14StringMapEntryIS4_EEEppEv(ptr noundef nonnull align 8 dereferenceable(8) %this) #0 comdat align 2 {
entry:
  %this.addr = alloca ptr, align 8
  store ptr %this, ptr %this.addr, align 8
  %this1 = load ptr, ptr %this.addr, align 8
  %Ptr = getelementptr inbounds %"class.llvh::StringMapIterBase", ptr %this1, i32 0, i32 0
  %0 = load ptr, ptr %Ptr, align 8
  %incdec.ptr = getelementptr inbounds ptr, ptr %0, i32 1
  store ptr %incdec.ptr, ptr %Ptr, align 8
  call void @_ZN4llvh17StringMapIterBaseINS_17StringMapIteratorIPNS_2cl6OptionEEENS_14StringMapEntryIS4_EEE23AdvancePastEmptyBucketsEv(ptr noundef nonnull align 8 dereferenceable(8) %this1)
  ret ptr %this1
}

; Function Attrs: mustprogress nounwind uwtable
define linkonce_odr hidden void @_ZN4llvh2cl6Option13setHiddenFlagENS0_12OptionHiddenE(ptr noundef nonnull align 8 dereferenceable(145) %this, i32 noundef %Val) #0 comdat align 2 {
entry:
  %this.addr = alloca ptr, align 8
  %Val.addr = alloca i32, align 4
  store ptr %this, ptr %this.addr, align 8
  store i32 %Val, ptr %Val.addr, align 4
  %this1 = load ptr, ptr %this.addr, align 8
  %0 = load i32, ptr %Val.addr, align 4
  %HiddenFlag = getelementptr inbounds %"class.llvh::cl::Option", ptr %this1, i32 0, i32 2
  %1 = trunc i32 %0 to i16
  %bf.load = load i16, ptr %HiddenFlag, align 4
  %bf.value = and i16 %1, 3
  %bf.shl = shl i16 %bf.value, 5
  %bf.clear = and i16 %bf.load, -97
  %bf.set = or i16 %bf.clear, %bf.shl
  store i16 %bf.set, ptr %HiddenFlag, align 4
  ret void
}

; Function Attrs: mustprogress nounwind uwtable
define linkonce_odr hidden noundef nonnull align 8 dereferenceable(16) ptr @_ZNK4llvh17StringMapIteratorIPNS_2cl6OptionEEdeEv(ptr noundef nonnull align 8 dereferenceable(8) %this) #0 comdat align 2 {
entry:
  %this.addr = alloca ptr, align 8
  store ptr %this, ptr %this.addr, align 8
  %this1 = load ptr, ptr %this.addr, align 8
  %Ptr = getelementptr inbounds %"class.llvh::StringMapIterBase", ptr %this1, i32 0, i32 0
  %0 = load ptr, ptr %Ptr, align 8
  %1 = load ptr, ptr %0, align 8
  ret ptr %1
}

; Function Attrs: mustprogress nounwind uwtable
define linkonce_odr hidden noundef zeroext i1 @_ZNK4llvh20iterator_facade_baseINS_17StringMapIteratorIPNS_2cl6OptionEEESt20forward_iterator_tagNS_14StringMapEntryIS4_EElPS8_RS8_EneERKS5_(ptr noundef nonnull align 1 dereferenceable(1) %this, ptr noundef nonnull align 8 dereferenceable(8) %RHS) #0 comdat align 2 {
entry:
  %this.addr = alloca ptr, align 8
  %RHS.addr = alloca ptr, align 8
  store ptr %this, ptr %this.addr, align 8
  store ptr %RHS, ptr %RHS.addr, align 8
  %this1 = load ptr, ptr %this.addr, align 8
  %0 = load ptr, ptr %RHS.addr, align 8
  %call = call noundef zeroext i1 @_ZNK4llvh17StringMapIterBaseINS_17StringMapIteratorIPNS_2cl6OptionEEENS_14StringMapEntryIS4_EEEeqERKS5_(ptr noundef nonnull align 8 dereferenceable(8) %this1, ptr noundef nonnull align 8 dereferenceable(8) %0)
  %lnot = xor i1 %call, true
  ret i1 %lnot
}

; Function Attrs: mustprogress nounwind uwtable
define linkonce_odr hidden ptr @_ZN4llvh9StringMapIPNS_2cl6OptionENS_15MallocAllocatorEE3endEv(ptr noundef nonnull align 8 dereferenceable(25) %this) #0 comdat align 2 {
entry:
  %retval = alloca %"class.llvh::StringMapIterator", align 8
  %this.addr = alloca ptr, align 8
  store ptr %this, ptr %this.addr, align 8
  %this1 = load ptr, ptr %this.addr, align 8
  %TheTable = getelementptr inbounds %"class.llvh::StringMapImpl", ptr %this1, i32 0, i32 0
  %0 = load ptr, ptr %TheTable, align 8
  %NumBuckets = getelementptr inbounds %"class.llvh::StringMapImpl", ptr %this1, i32 0, i32 1
  %1 = load i32, ptr %NumBuckets, align 8
  %idx.ext = zext i32 %1 to i64
  %add.ptr = getelementptr inbounds ptr, ptr %0, i64 %idx.ext
  call void @_ZN4llvh17StringMapIteratorIPNS_2cl6OptionEEC2EPPNS_18StringMapEntryBaseEb(ptr noundef nonnull align 8 dereferenceable(8) %retval, ptr noundef %add.ptr, i1 noundef zeroext true)
  %coerce.dive = getelementptr inbounds %"class.llvh::StringMapIterator", ptr %retval, i32 0, i32 0
  %coerce.dive2 = getelementptr inbounds %"class.llvh::StringMapIterBase", ptr %coerce.dive, i32 0, i32 0
  %2 = load ptr, ptr %coerce.dive2, align 8
  ret ptr %2
}

; Function Attrs: mustprogress nounwind uwtable
define linkonce_odr hidden ptr @_ZN4llvh9StringMapIPNS_2cl6OptionENS_15MallocAllocatorEE5beginEv(ptr noundef nonnull align 8 dereferenceable(25) %this) #0 comdat align 2 {
entry:
  %retval = alloca %"class.llvh::StringMapIterator", align 8
  %this.addr = alloca ptr, align 8
  store ptr %this, ptr %this.addr, align 8
  %this1 = load ptr, ptr %this.addr, align 8
  %TheTable = getelementptr inbounds %"class.llvh::StringMapImpl", ptr %this1, i32 0, i32 0
  %0 = load ptr, ptr %TheTable, align 8
  %NumBuckets = getelementptr inbounds %"class.llvh::StringMapImpl", ptr %this1, i32 0, i32 1
  %1 = load i32, ptr %NumBuckets, align 8
  %cmp = icmp eq i32 %1, 0
  call void @_ZN4llvh17StringMapIteratorIPNS_2cl6OptionEEC2EPPNS_18StringMapEntryBaseEb(ptr noundef nonnull align 8 dereferenceable(8) %retval, ptr noundef %0, i1 noundef zeroext %cmp)
  %coerce.dive = getelementptr inbounds %"class.llvh::StringMapIterator", ptr %retval, i32 0, i32 0
  %coerce.dive2 = getelementptr inbounds %"class.llvh::StringMapIterBase", ptr %coerce.dive, i32 0, i32 0
  %2 = load ptr, ptr %coerce.dive2, align 8
  ret ptr %2
}

; Function Attrs: mustprogress nounwind uwtable
define hidden void @_ZN4llvh2cl20HideUnrelatedOptionsERNS0_14OptionCategoryERNS0_10SubCommandE(ptr noundef nonnull align 8 dereferenceable(32) %Category, ptr noundef nonnull align 8 dereferenceable(168) %Sub) #0 {
entry:
  %Category.addr = alloca ptr, align 8
  %Sub.addr = alloca ptr, align 8
  %__range1 = alloca ptr, align 8
  %__begin1 = alloca %"class.llvh::StringMapIterator", align 8
  %__end1 = alloca %"class.llvh::StringMapIterator", align 8
  %I = alloca ptr, align 8
  store ptr %Category, ptr %Category.addr, align 8
  store ptr %Sub, ptr %Sub.addr, align 8
  %0 = load ptr, ptr %Sub.addr, align 8
  %OptionsMap = getelementptr inbounds %"class.llvh::cl::SubCommand", ptr %0, i32 0, i32 4
  store ptr %OptionsMap, ptr %__range1, align 8
  %1 = load ptr, ptr %__range1, align 8
  %call = call ptr @_ZN4llvh9StringMapIPNS_2cl6OptionENS_15MallocAllocatorEE5beginEv(ptr noundef nonnull align 8 dereferenceable(25) %1)
  %coerce.dive = getelementptr inbounds %"class.llvh::StringMapIterator", ptr %__begin1, i32 0, i32 0
  %coerce.dive1 = getelementptr inbounds %"class.llvh::StringMapIterBase", ptr %coerce.dive, i32 0, i32 0
  store ptr %call, ptr %coerce.dive1, align 8
  %2 = load ptr, ptr %__range1, align 8
  %call2 = call ptr @_ZN4llvh9StringMapIPNS_2cl6OptionENS_15MallocAllocatorEE3endEv(ptr noundef nonnull align 8 dereferenceable(25) %2)
  %coerce.dive3 = getelementptr inbounds %"class.llvh::StringMapIterator", ptr %__end1, i32 0, i32 0
  %coerce.dive4 = getelementptr inbounds %"class.llvh::StringMapIterBase", ptr %coerce.dive3, i32 0, i32 0
  store ptr %call2, ptr %coerce.dive4, align 8
  br label %for.cond

for.cond:                                         ; preds = %for.inc, %entry
  %call5 = call noundef zeroext i1 @_ZNK4llvh20iterator_facade_baseINS_17StringMapIteratorIPNS_2cl6OptionEEESt20forward_iterator_tagNS_14StringMapEntryIS4_EElPS8_RS8_EneERKS5_(ptr noundef nonnull align 1 dereferenceable(1) %__begin1, ptr noundef nonnull align 8 dereferenceable(8) %__end1)
  br i1 %call5, label %for.body, label %for.end

for.body:                                         ; preds = %for.cond
  %call6 = call noundef nonnull align 8 dereferenceable(16) ptr @_ZNK4llvh17StringMapIteratorIPNS_2cl6OptionEEdeEv(ptr noundef nonnull align 8 dereferenceable(8) %__begin1)
  store ptr %call6, ptr %I, align 8
  %3 = load ptr, ptr %I, align 8
  %second = getelementptr inbounds %"class.llvh::StringMapEntry", ptr %3, i32 0, i32 1
  %4 = load ptr, ptr %second, align 8
  %Category7 = getelementptr inbounds %"class.llvh::cl::Option", ptr %4, i32 0, i32 9
  %5 = load ptr, ptr %Category7, align 8
  %6 = load ptr, ptr %Category.addr, align 8
  %cmp = icmp ne ptr %5, %6
  br i1 %cmp, label %land.lhs.true, label %if.end

land.lhs.true:                                    ; preds = %for.body
  %7 = load ptr, ptr %I, align 8
  %second8 = getelementptr inbounds %"class.llvh::StringMapEntry", ptr %7, i32 0, i32 1
  %8 = load ptr, ptr %second8, align 8
  %Category9 = getelementptr inbounds %"class.llvh::cl::Option", ptr %8, i32 0, i32 9
  %9 = load ptr, ptr %Category9, align 8
  %cmp10 = icmp ne ptr %9, @_ZL15GenericCategory
  br i1 %cmp10, label %if.then, label %if.end

if.then:                                          ; preds = %land.lhs.true
  %10 = load ptr, ptr %I, align 8
  %second11 = getelementptr inbounds %"class.llvh::StringMapEntry", ptr %10, i32 0, i32 1
  %11 = load ptr, ptr %second11, align 8
  call void @_ZN4llvh2cl6Option13setHiddenFlagENS0_12OptionHiddenE(ptr noundef nonnull align 8 dereferenceable(145) %11, i32 noundef 2)
  br label %if.end

if.end:                                           ; preds = %if.then, %land.lhs.true, %for.body
  br label %for.inc

for.inc:                                          ; preds = %if.end
  %call12 = call noundef nonnull align 8 dereferenceable(8) ptr @_ZN4llvh17StringMapIterBaseINS_17StringMapIteratorIPNS_2cl6OptionEEENS_14StringMapEntryIS4_EEEppEv(ptr noundef nonnull align 8 dereferenceable(8) %__begin1)
  br label %for.cond

for.end:                                          ; preds = %for.cond
  ret void
}