; Function Attrs: mustprogress nofree norecurse nosync nounwind memory(readwrite, inaccessiblemem: none) uwtable
define hidden void @_ZN4llvh2cl20HideUnrelatedOptionsERNS0_14OptionCategoryERNS0_10SubCommandE(ptr noundef nonnull readnone align 8 dereferenceable(32) %Category, ptr nocapture noundef nonnull readonly align 8 dereferenceable(168) %Sub) local_unnamed_addr #10 {
entry:
  %OptionsMap = getelementptr inbounds i8, ptr %Sub, i64 128
  %0 = load ptr, ptr %OptionsMap, align 8
  %NumBuckets.i = getelementptr inbounds i8, ptr %Sub, i64 136
  %1 = load i32, ptr %NumBuckets.i, align 8
  %cmp.i = icmp eq i32 %1, 0
  br i1 %cmp.i, label %_ZN4llvh9StringMapIPNS_2cl6OptionENS_15MallocAllocatorEE5beginEv.exit, label %while.cond.i.i.i.i

while.cond.i.i.i.i:                               ; preds = %entry, %while.body.i.i.i.i
  %retval.sroa.0.0.i = phi ptr [ %incdec.ptr.i.i.i.i, %while.body.i.i.i.i ], [ %0, %entry ]
  %2 = load ptr, ptr %retval.sroa.0.0.i, align 8
  %magicptr.i.i.i.i = ptrtoint ptr %2 to i64
  switch i64 %magicptr.i.i.i.i, label %_ZN4llvh9StringMapIPNS_2cl6OptionENS_15MallocAllocatorEE5beginEv.exit [
    i64 0, label %while.body.i.i.i.i
    i64 -8, label %while.body.i.i.i.i
  ]

while.body.i.i.i.i:                               ; preds = %while.cond.i.i.i.i, %while.cond.i.i.i.i
  %incdec.ptr.i.i.i.i = getelementptr inbounds i8, ptr %retval.sroa.0.0.i, i64 8
  br label %while.cond.i.i.i.i, !llvm.loop !62

_ZN4llvh9StringMapIPNS_2cl6OptionENS_15MallocAllocatorEE5beginEv.exit: ; preds = %while.cond.i.i.i.i, %entry
  %retval.sroa.0.1.i = phi ptr [ %0, %entry ], [ %retval.sroa.0.0.i, %while.cond.i.i.i.i ]
  %idx.ext.i = zext i32 %1 to i64
  %add.ptr.i = getelementptr inbounds ptr, ptr %0, i64 %idx.ext.i
  %cmp.i.i.not7 = icmp eq ptr %retval.sroa.0.1.i, %add.ptr.i
  br i1 %cmp.i.i.not7, label %for.end, label %for.body.preheader

for.body.preheader:                               ; preds = %_ZN4llvh9StringMapIPNS_2cl6OptionENS_15MallocAllocatorEE5beginEv.exit
  %.pre = load ptr, ptr %retval.sroa.0.1.i, align 8
  br label %for.body

for.cond.loopexit:                                ; preds = %while.cond.i.i
  %cmp.i.i.not = icmp eq ptr %storemerge.i, %add.ptr.i
  br i1 %cmp.i.i.not, label %for.end, label %for.body

for.body:                                         ; preds = %for.body.preheader, %for.cond.loopexit
  %3 = phi ptr [ %6, %for.cond.loopexit ], [ %.pre, %for.body.preheader ]
  %__begin1.sroa.0.08 = phi ptr [ %storemerge.i, %for.cond.loopexit ], [ %retval.sroa.0.1.i, %for.body.preheader ]
  %second = getelementptr inbounds i8, ptr %3, i64 8
  %4 = load ptr, ptr %second, align 8
  %Category7 = getelementptr inbounds i8, ptr %4, i64 72
  %5 = load ptr, ptr %Category7, align 8
  %cmp.not = icmp eq ptr %5, %Category
  %cmp10.not = icmp eq ptr %5, @_ZL15GenericCategory
  %or.cond = or i1 %cmp.not, %cmp10.not
  br i1 %or.cond, label %while.cond.i.i.preheader, label %if.then

if.then:                                          ; preds = %for.body
  %HiddenFlag.i = getelementptr inbounds i8, ptr %4, i64 12
  %bf.load.i = load i16, ptr %HiddenFlag.i, align 4
  %bf.clear.i = and i16 %bf.load.i, -97
  %bf.set.i = or disjoint i16 %bf.clear.i, 64
  store i16 %bf.set.i, ptr %HiddenFlag.i, align 4
  br label %while.cond.i.i.preheader

while.cond.i.i.preheader:                         ; preds = %for.body, %if.then
  br label %while.cond.i.i

while.cond.i.i:                                   ; preds = %while.cond.i.i.backedge, %while.cond.i.i.preheader
  %.pn.i = phi ptr [ %__begin1.sroa.0.08, %while.cond.i.i.preheader ], [ %storemerge.i, %while.cond.i.i.backedge ]
  %storemerge.i = getelementptr inbounds i8, ptr %.pn.i, i64 8
  %6 = load ptr, ptr %storemerge.i, align 8
  %magicptr.i.i = ptrtoint ptr %6 to i64
  switch i64 %magicptr.i.i, label %for.cond.loopexit [
    i64 0, label %while.cond.i.i.backedge
    i64 -8, label %while.cond.i.i.backedge
  ]

while.cond.i.i.backedge:                          ; preds = %while.cond.i.i, %while.cond.i.i
  br label %while.cond.i.i, !llvm.loop !62

for.end:                                          ; preds = %for.cond.loopexit, %_ZN4llvh9StringMapIPNS_2cl6OptionENS_15MallocAllocatorEE5beginEv.exit
  ret void
}